target datalayout = "e-m:e-p270:32:32-p271:32:32-p272:64:64-i64:64-i128:128-f80:128-n8:16:32:64-S128"
target triple = "x86_64-pc-linux-gnu"

%"class.llvm::SlotIndex" = type { %"class.llvm::PointerIntPair" }
%"class.llvm::PointerIntPair" = type { %"struct.llvm::detail::PunnedPointer" }
%"struct.llvm::detail::PunnedPointer" = type { [8 x i8] }
%"class.(anonymous namespace)::CalcLiveRangeUtilSet" = type { %"class.(anonymous namespace)::CalcLiveRangeUtilBase" }
%"class.(anonymous namespace)::CalcLiveRangeUtilBase" = type { ptr }
%"class.(anonymous namespace)::CalcLiveRangeUtilVector" = type { %"class.(anonymous namespace)::CalcLiveRangeUtilBase.18" }
%"class.(anonymous namespace)::CalcLiveRangeUtilBase.18" = type { ptr }
%"class.llvm::LiveRange" = type { %"class.llvm::SmallVector", %"class.llvm::SmallVector.0", %"class.std::unique_ptr" }
%"class.llvm::SmallVector" = type { %"class.llvm::SmallVectorImpl", %"struct.llvm::SmallVectorStorage" }
%"class.llvm::SmallVectorImpl" = type { %"class.llvm::SmallVectorTemplateBase" }
%"class.llvm::SmallVectorTemplateBase" = type { %"class.llvm::SmallVectorTemplateCommon" }
%"class.llvm::SmallVectorTemplateCommon" = type { %"class.llvm::SmallVectorBase" }
%"class.llvm::SmallVectorBase" = type { ptr, i32, i32 }
%"struct.llvm::SmallVectorStorage" = type { [48 x i8] }
%"class.llvm::SmallVector.0" = type { %"class.llvm::SmallVectorImpl.1", %"struct.llvm::SmallVectorStorage.4" }
%"class.llvm::SmallVectorImpl.1" = type { %"class.llvm::SmallVectorTemplateBase.2" }
%"class.llvm::SmallVectorTemplateBase.2" = type { %"class.llvm::SmallVectorTemplateCommon.3" }
%"class.llvm::SmallVectorTemplateCommon.3" = type { %"class.llvm::SmallVectorBase" }
%"struct.llvm::SmallVectorStorage.4" = type { [16 x i8] }
%"class.std::unique_ptr" = type { %"struct.std::__uniq_ptr_data" }
%"struct.std::__uniq_ptr_data" = type { %"class.std::__uniq_ptr_impl" }
%"class.std::__uniq_ptr_impl" = type { %"class.std::tuple" }
%"class.std::tuple" = type { %"struct.std::_Tuple_impl" }
%"struct.std::_Tuple_impl" = type { %"struct.std::_Head_base.6" }
%"struct.std::_Head_base.6" = type { ptr }
%"class.llvm::VNInfo" = type { i32, [4 x i8], %"class.llvm::SlotIndex" }

; Function Attrs: mustprogress nounwind uwtable
define linkonce_odr hidden noundef nonnull align 8 dereferenceable(8) ptr @_ZNSt10_Head_baseILm0EPSt3setIN4llvm9LiveRange7SegmentESt4lessIS3_ESaIS3_EELb0EE7_M_headERKS9_(ptr noundef nonnull align 8 dereferenceable(8) %0) #0 comdat align 2 {
  %2 = alloca ptr, align 8
  store ptr %0, ptr %2, align 8
  %3 = load ptr, ptr %2, align 8
  %4 = getelementptr inbounds nuw %"struct.std::_Head_base.6", ptr %3, i32 0, i32 0
  ret ptr %4
}

; Function Attrs: mustprogress nounwind uwtable
define linkonce_odr hidden noundef nonnull align 8 dereferenceable(8) ptr @_ZNSt11_Tuple_implILm0EJPSt3setIN4llvm9LiveRange7SegmentESt4lessIS3_ESaIS3_EESt14default_deleteIS7_EEE7_M_headERKSB_(ptr noundef nonnull align 8 dereferenceable(8) %0) #0 comdat align 2 {
  %2 = alloca ptr, align 8
  store ptr %0, ptr %2, align 8
  %3 = load ptr, ptr %2, align 8
  %4 = call noundef nonnull align 8 dereferenceable(8) ptr @_ZNSt10_Head_baseILm0EPSt3setIN4llvm9LiveRange7SegmentESt4lessIS3_ESaIS3_EELb0EE7_M_headERKS9_(ptr noundef nonnull align 8 dereferenceable(8) %3) #11
  ret ptr %4
}

; Function Attrs: mustprogress nounwind uwtable
define linkonce_odr noundef nonnull align 8 dereferenceable(8) ptr @_ZSt12__get_helperILm0EPSt3setIN4llvm9LiveRange7SegmentESt4lessIS3_ESaIS3_EEJSt14default_deleteIS7_EEERKT0_RKSt11_Tuple_implIXT_EJSB_DpT1_EE(ptr noundef nonnull align 8 dereferenceable(8) %0) #0 comdat {
  %2 = alloca ptr, align 8
  store ptr %0, ptr %2, align 8
  %3 = load ptr, ptr %2, align 8
  %4 = call noundef nonnull align 8 dereferenceable(8) ptr @_ZNSt11_Tuple_implILm0EJPSt3setIN4llvm9LiveRange7SegmentESt4lessIS3_ESaIS3_EESt14default_deleteIS7_EEE7_M_headERKSB_(ptr noundef nonnull align 8 dereferenceable(8) %3) #11
  ret ptr %4
}

; Function Attrs: mustprogress nounwind uwtable
define linkonce_odr noundef nonnull align 8 dereferenceable(8) ptr @_ZSt3getILm0EJPSt3setIN4llvm9LiveRange7SegmentESt4lessIS3_ESaIS3_EESt14default_deleteIS7_EEERKNSt13tuple_elementIXT_ESt5tupleIJDpT0_EEE4typeERKSF_(ptr noundef nonnull align 8 dereferenceable(8) %0) #0 comdat {
  %2 = alloca ptr, align 8
  store ptr %0, ptr %2, align 8
  %3 = load ptr, ptr %2, align 8
  %4 = call noundef nonnull align 8 dereferenceable(8) ptr @_ZSt12__get_helperILm0EPSt3setIN4llvm9LiveRange7SegmentESt4lessIS3_ESaIS3_EEJSt14default_deleteIS7_EEERKT0_RKSt11_Tuple_implIXT_EJSB_DpT1_EE(ptr noundef nonnull align 8 dereferenceable(8) %3) #11
  ret ptr %4
}

; Function Attrs: mustprogress nounwind uwtable
define linkonce_odr hidden noundef ptr @_ZNKSt15__uniq_ptr_implISt3setIN4llvm9LiveRange7SegmentESt4lessIS3_ESaIS3_EESt14default_deleteIS7_EE6_M_ptrEv(ptr noundef nonnull align 8 dereferenceable(8) %0) #0 comdat align 2 {
  %2 = alloca ptr, align 8
  store ptr %0, ptr %2, align 8
  %3 = load ptr, ptr %2, align 8
  %4 = getelementptr inbounds nuw %"class.std::__uniq_ptr_impl", ptr %3, i32 0, i32 0
  %5 = call noundef nonnull align 8 dereferenceable(8) ptr @_ZSt3getILm0EJPSt3setIN4llvm9LiveRange7SegmentESt4lessIS3_ESaIS3_EESt14default_deleteIS7_EEERKNSt13tuple_elementIXT_ESt5tupleIJDpT0_EEE4typeERKSF_(ptr noundef nonnull align 8 dereferenceable(8) %4) #11
  %6 = load ptr, ptr %5, align 8
  ret ptr %6
}

; Function Attrs: mustprogress nounwind uwtable
define linkonce_odr hidden noundef ptr @_ZNKSt10unique_ptrISt3setIN4llvm9LiveRange7SegmentESt4lessIS3_ESaIS3_EESt14default_deleteIS7_EE3getEv(ptr noundef nonnull align 8 dereferenceable(8) %0) #0 comdat align 2 {
  %2 = alloca ptr, align 8
  store ptr %0, ptr %2, align 8
  %3 = load ptr, ptr %2, align 8
  %4 = getelementptr inbounds nuw %"class.std::unique_ptr", ptr %3, i32 0, i32 0
  %5 = call noundef ptr @_ZNKSt15__uniq_ptr_implISt3setIN4llvm9LiveRange7SegmentESt4lessIS3_ESaIS3_EESt14default_deleteIS7_EE6_M_ptrEv(ptr noundef nonnull align 8 dereferenceable(8) %4) #11
  ret ptr %5
}

; Function Attrs: mustprogress nounwind uwtable
define internal void @_ZN12_GLOBAL__N_121CalcLiveRangeUtilBaseINS_23CalcLiveRangeUtilVectorEPN4llvm9LiveRange7SegmentENS2_11SmallVectorIS4_Lj2EEEEC2EPS3_(ptr noundef nonnull align 8 dereferenceable(8) %0, ptr noundef %1) unnamed_addr #0 align 2 {
  %3 = alloca ptr, align 8
  %4 = alloca ptr, align 8
  store ptr %0, ptr %3, align 8
  store ptr %1, ptr %4, align 8
  %5 = load ptr, ptr %3, align 8
  %6 = getelementptr inbounds nuw %"class.(anonymous namespace)::CalcLiveRangeUtilBase.18", ptr %5, i32 0, i32 0
  %7 = load ptr, ptr %4, align 8
  store ptr %7, ptr %6, align 8
  ret void
}

; Function Attrs: mustprogress nounwind uwtable
define internal void @_ZN12_GLOBAL__N_121CalcLiveRangeUtilBaseINS_20CalcLiveRangeUtilSetESt23_Rb_tree_const_iteratorIN4llvm9LiveRange7SegmentEESt3setIS5_St4lessIS5_ESaIS5_EEEC2EPS4_(ptr noundef nonnull align 8 dereferenceable(8) %0, ptr noundef %1) unnamed_addr #0 align 2 {
  %3 = alloca ptr, align 8
  %4 = alloca ptr, align 8
  store ptr %0, ptr %3, align 8
  store ptr %1, ptr %4, align 8
  %5 = load ptr, ptr %3, align 8
  %6 = getelementptr inbounds nuw %"class.(anonymous namespace)::CalcLiveRangeUtilBase", ptr %5, i32 0, i32 0
  %7 = load ptr, ptr %4, align 8
  store ptr %7, ptr %6, align 8
  ret void
}

; Function Attrs: mustprogress nounwind uwtable
define linkonce_odr hidden noundef zeroext i1 @_ZNKSt10unique_ptrISt3setIN4llvm9LiveRange7SegmentESt4lessIS3_ESaIS3_EESt14default_deleteIS7_EEcvbEv(ptr noundef nonnull align 8 dereferenceable(8) %0) #0 comdat align 2 {
  %2 = alloca ptr, align 8
  store ptr %0, ptr %2, align 8
  %3 = load ptr, ptr %2, align 8
  %4 = call noundef ptr @_ZNKSt10unique_ptrISt3setIN4llvm9LiveRange7SegmentESt4lessIS3_ESaIS3_EESt14default_deleteIS7_EE3getEv(ptr noundef nonnull align 8 dereferenceable(8) %3) #11
  %5 = icmp eq ptr %4, null
  %6 = select i1 %5, i1 false, i1 true
  ret i1 %6
}

; Function Attrs: mustprogress nounwind uwtable
define internal void @_ZN12_GLOBAL__N_123CalcLiveRangeUtilVectorC2EPN4llvm9LiveRangeE(ptr noundef nonnull align 8 dereferenceable(8) %0, ptr noundef %1) unnamed_addr #0 align 2 {
  %3 = alloca ptr, align 8
  %4 = alloca ptr, align 8
  store ptr %0, ptr %3, align 8
  store ptr %1, ptr %4, align 8
  %5 = load ptr, ptr %3, align 8
  %6 = load ptr, ptr %4, align 8
  call void @_ZN12_GLOBAL__N_121CalcLiveRangeUtilBaseINS_23CalcLiveRangeUtilVectorEPN4llvm9LiveRange7SegmentENS2_11SmallVectorIS4_Lj2EEEEC2EPS3_(ptr noundef nonnull align 8 dereferenceable(8) %5, ptr noundef %6)
  ret void
}

; Function Attrs: mustprogress nounwind uwtable
define internal void @_ZN12_GLOBAL__N_120CalcLiveRangeUtilSetC2EPN4llvm9LiveRangeE(ptr noundef nonnull align 8 dereferenceable(8) %0, ptr noundef %1) unnamed_addr #0 align 2 {
  %3 = alloca ptr, align 8
  %4 = alloca ptr, align 8
  store ptr %0, ptr %3, align 8
  store ptr %1, ptr %4, align 8
  %5 = load ptr, ptr %3, align 8
  %6 = load ptr, ptr %4, align 8
  call void @_ZN12_GLOBAL__N_121CalcLiveRangeUtilBaseINS_20CalcLiveRangeUtilSetESt23_Rb_tree_const_iteratorIN4llvm9LiveRange7SegmentEESt3setIS5_St4lessIS5_ESaIS5_EEEC2EPS4_(ptr noundef nonnull align 8 dereferenceable(8) %5, ptr noundef %6)
  ret void
}

; Function Attrs: mustprogress nounwind uwtable
define linkonce_odr noundef zeroext i1 @_ZStneISt3setIN4llvm9LiveRange7SegmentESt4lessIS3_ESaIS3_EESt14default_deleteIS7_EEbRKSt10unique_ptrIT_T0_EDn(ptr noundef nonnull align 8 dereferenceable(8) %0, ptr %1) #0 comdat {
  %3 = alloca ptr, align 8
  %4 = alloca ptr, align 8
  store ptr %0, ptr %3, align 8
  store ptr %1, ptr %4, align 8
  %5 = load ptr, ptr %3, align 8
  %6 = call noundef zeroext i1 @_ZNKSt10unique_ptrISt3setIN4llvm9LiveRange7SegmentESt4lessIS3_ESaIS3_EESt14default_deleteIS7_EEcvbEv(ptr noundef nonnull align 8 dereferenceable(8) %5) #11
  ret i1 %6
}

; Function Attrs: mustprogress nounwind uwtable
define dso_local noundef ptr @_ZN4llvm9LiveRange13createDeadDefEPNS_6VNInfoE(ptr noundef nonnull align 8 dereferenceable(104) %0, ptr noundef %1) #0 align 2 {
  %3 = alloca ptr, align 8
  %4 = alloca ptr, align 8
  %5 = alloca ptr, align 8
  %6 = alloca %"class.(anonymous namespace)::CalcLiveRangeUtilSet", align 8
  %7 = alloca %"class.llvm::SlotIndex", align 8
  %8 = alloca %"class.(anonymous namespace)::CalcLiveRangeUtilVector", align 8
  %9 = alloca %"class.llvm::SlotIndex", align 8
  store ptr %0, ptr %4, align 8
  store ptr %1, ptr %5, align 8
  %10 = load ptr, ptr %4, align 8
  %11 = getelementptr inbounds nuw %"class.llvm::LiveRange", ptr %10, i32 0, i32 2
  %12 = call noundef zeroext i1 @_ZStneISt3setIN4llvm9LiveRange7SegmentESt4lessIS3_ESaIS3_EESt14default_deleteIS7_EEbRKSt10unique_ptrIT_T0_EDn(ptr noundef nonnull align 8 dereferenceable(8) %11, ptr null) #11
  br i1 %12, label %13, label %22

13:                                               ; preds = %2
  call void @_ZN12_GLOBAL__N_120CalcLiveRangeUtilSetC2EPN4llvm9LiveRangeE(ptr noundef nonnull align 8 dereferenceable(8) %6, ptr noundef %10)
  %14 = load ptr, ptr %5, align 8
  %15 = getelementptr inbounds nuw %"class.llvm::VNInfo", ptr %14, i32 0, i32 2
  call void @llvm.memcpy.p0.p0.i64(ptr align 8 %7, ptr align 8 %15, i64 8, i1 false)
  %16 = load ptr, ptr %5, align 8
  %17 = getelementptr inbounds nuw %"class.llvm::SlotIndex", ptr %7, i32 0, i32 0
  %18 = getelementptr inbounds nuw %"class.llvm::PointerIntPair", ptr %17, i32 0, i32 0
  %19 = getelementptr inbounds nuw %"struct.llvm::detail::PunnedPointer", ptr %18, i32 0, i32 0
  %20 = load i64, ptr %19, align 8
  %21 = call noundef ptr @_ZN12_GLOBAL__N_121CalcLiveRangeUtilBaseINS_20CalcLiveRangeUtilSetESt23_Rb_tree_const_iteratorIN4llvm9LiveRange7SegmentEESt3setIS5_St4lessIS5_ESaIS5_EEE13createDeadDefENS3_9SlotIndexEPNS3_20BumpPtrAllocatorImplINS3_15MallocAllocatorELm4096ELm4096ELm128EEEPNS3_6VNInfoE(ptr noundef nonnull align 8 dereferenceable(8) %6, i64 %20, ptr noundef null, ptr noundef %16)
  store ptr %21, ptr %3, align 8
  br label %31

22:                                               ; preds = %2
  call void @_ZN12_GLOBAL__N_123CalcLiveRangeUtilVectorC2EPN4llvm9LiveRangeE(ptr noundef nonnull align 8 dereferenceable(8) %8, ptr noundef %10)
  %23 = load ptr, ptr %5, align 8
  %24 = getelementptr inbounds nuw %"class.llvm::VNInfo", ptr %23, i32 0, i32 2
  call void @llvm.memcpy.p0.p0.i64(ptr align 8 %9, ptr align 8 %24, i64 8, i1 false)
  %25 = load ptr, ptr %5, align 8
  %26 = getelementptr inbounds nuw %"class.llvm::SlotIndex", ptr %9, i32 0, i32 0
  %27 = getelementptr inbounds nuw %"class.llvm::PointerIntPair", ptr %26, i32 0, i32 0
  %28 = getelementptr inbounds nuw %"struct.llvm::detail::PunnedPointer", ptr %27, i32 0, i32 0
  %29 = load i64, ptr %28, align 8
  %30 = call noundef ptr @_ZN12_GLOBAL__N_121CalcLiveRangeUtilBaseINS_23CalcLiveRangeUtilVectorEPN4llvm9LiveRange7SegmentENS2_11SmallVectorIS4_Lj2EEEE13createDeadDefENS2_9SlotIndexEPNS2_20BumpPtrAllocatorImplINS2_15MallocAllocatorELm4096ELm4096ELm128EEEPNS2_6VNInfoE(ptr noundef nonnull align 8 dereferenceable(8) %8, i64 %29, ptr noundef null, ptr noundef %25)
  store ptr %30, ptr %3, align 8
  br label %31

31:                                               ; preds = %22, %13
  %32 = load ptr, ptr %3, align 8
  ret ptr %32
}