; Function Attrs: mustprogress nounwind uwtable
define dso_local noundef ptr @_ZN4llvm9LiveRange13createDeadDefEPNS_6VNInfoE(ptr noundef nonnull align 8 dereferenceable(104) %0, ptr noundef %1) local_unnamed_addr #0 align 2 {
  %3 = getelementptr inbounds nuw i8, ptr %0, i64 96
  %4 = load ptr, ptr %3, align 8
  %.not = icmp eq ptr %4, null
  %5 = getelementptr inbounds nuw i8, ptr %1, i64 8
  %.sroa.0.0.copyload = load i64, ptr %5, align 8
  br i1 %.not, label %8, label %6

6:                                                ; preds = %2
  %7 = tail call fastcc noundef ptr @_ZN12_GLOBAL__N_121CalcLiveRangeUtilBaseINS_20CalcLiveRangeUtilSetESt23_Rb_tree_const_iteratorIN4llvm9LiveRange7SegmentEESt3setIS5_St4lessIS5_ESaIS5_EEE13createDeadDefENS3_9SlotIndexEPNS3_20BumpPtrAllocatorImplINS3_15MallocAllocatorELm4096ELm4096ELm128EEEPNS3_6VNInfoE(ptr nonnull %0, i64 %.sroa.0.0.copyload, ptr noundef null, ptr noundef %1)
  br label %10

8:                                                ; preds = %2
  %9 = tail call fastcc noundef ptr @_ZN12_GLOBAL__N_121CalcLiveRangeUtilBaseINS_23CalcLiveRangeUtilVectorEPN4llvm9LiveRange7SegmentENS2_11SmallVectorIS4_Lj2EEEE13createDeadDefENS2_9SlotIndexEPNS2_20BumpPtrAllocatorImplINS2_15MallocAllocatorELm4096ELm4096ELm128EEEPNS2_6VNInfoE(ptr %0, i64 %.sroa.0.0.copyload, ptr noundef null, ptr noundef %1)
  br label %10

10:                                               ; preds = %8, %6
  %.0 = phi ptr [ %7, %6 ], [ %9, %8 ]
  ret ptr %.0
}